; Function Attrs: mustprogress nounwind uwtable
define void @_ZN5folly11AsyncSocket10handleReadEv(ptr noundef nonnull align 8 dereferenceable(1113) %this) unnamed_addr #0 align 2 personality ptr @__gxx_personality_v0 {
entry:
  %ref.tmp6 = alloca %"class.google::LogMessage", align 8
  %0 = load ptr, ptr @_ZZN5folly11AsyncSocket10handleReadEvE8vlocal__, align 8, !tbaa !24
  %cmp = icmp eq ptr %0, null
  br i1 %cmp, label %cond.true, label %cond.false

cond.true:                                        ; preds = %entry
  %call = invoke noundef zeroext i1 @_ZN6google11InitVLOG3__EPNS_8SiteFlagEPiPKci(ptr noundef nonnull @_ZZN5folly11AsyncSocket10handleReadEvE8vlocal__, ptr noundef nonnull @_ZN3fLI7FLAGS_vE, ptr noundef nonnull @.str.3, i32 noundef 5)
          to label %cond.end unwind label %terminate.lpad.loopexit.split-lp

cond.false:                                       ; preds = %entry
  %1 = load i32, ptr %0, align 4, !tbaa !16
  %cmp2 = icmp sgt i32 %1, 4
  br i1 %cmp2, label %cond.false4, label %cleanup.done26

cond.end:                                         ; preds = %cond.true
  br i1 %call, label %cond.false4, label %cleanup.done26

cond.false4:                                      ; preds = %cond.end, %cond.false
  call void @llvm.lifetime.start.p0(i64 96, ptr nonnull %ref.tmp6) #41
  invoke void @_ZN6google10LogMessageC1EPKci(ptr noundef nonnull align 8 dereferenceable(96) %ref.tmp6, ptr noundef nonnull @.str.3, i32 noundef 3246)
          to label %invoke.cont7 unwind label %terminate.lpad.loopexit.split-lp

invoke.cont7:                                     ; preds = %cond.false4
  %call10 = invoke noundef nonnull align 8 dereferenceable(8) ptr @_ZN6google10LogMessage6streamEv(ptr noundef nonnull align 8 dereferenceable(96) %ref.tmp6)
          to label %invoke.cont9 unwind label %terminate.lpad.loopexit.split-lp

invoke.cont9:                                     ; preds = %invoke.cont7
  %call1.i67 = invoke noundef nonnull align 8 dereferenceable(8) ptr @_ZSt16__ostream_insertIcSt11char_traitsIcEERSt13basic_ostreamIT_T0_ES6_PKS3_l(ptr noundef nonnull align 8 dereferenceable(8) %call10, ptr noundef nonnull @.str.222, i64 noundef 31)
          to label %invoke.cont11 unwind label %terminate.lpad.loopexit.split-lp

invoke.cont11:                                    ; preds = %invoke.cont9
  %call.i68 = invoke noundef nonnull align 8 dereferenceable(8) ptr @_ZNSo9_M_insertIPKvEERSoT_(ptr noundef nonnull align 8 dereferenceable(8) %call10, ptr noundef nonnull %this)
          to label %invoke.cont13 unwind label %terminate.lpad.loopexit.split-lp

invoke.cont13:                                    ; preds = %invoke.cont11
  %call1.i70 = invoke noundef nonnull align 8 dereferenceable(8) ptr @_ZSt16__ostream_insertIcSt11char_traitsIcEERSt13basic_ostreamIT_T0_ES6_PKS3_l(ptr noundef nonnull align 8 dereferenceable(8) %call.i68, ptr noundef nonnull @.str.40, i64 noundef 5)
          to label %invoke.cont15 unwind label %terminate.lpad.loopexit.split-lp

invoke.cont15:                                    ; preds = %invoke.cont13
  %call1.i.i72 = invoke noundef nonnull align 8 dereferenceable(8) ptr @_ZSt16__ostream_insertIcSt11char_traitsIcEERSt13basic_ostreamIT_T0_ES6_PKS3_l(ptr noundef nonnull align 8 dereferenceable(8) %call.i68, ptr noundef nonnull @.str.42, i64 noundef 21)
          to label %call1.i.i.noexc unwind label %terminate.lpad.loopexit.split-lp

call1.i.i.noexc:                                  ; preds = %invoke.cont15
  %fd_ = getelementptr inbounds i8, ptr %this, i64 220
  %2 = load i32, ptr %fd_, align 4, !tbaa !124
  %call1.i73 = invoke noundef nonnull align 8 dereferenceable(8) ptr @_ZNSolsEi(ptr noundef nonnull align 8 dereferenceable(8) %call.i68, i32 noundef %2)
          to label %call1.i.noexc unwind label %terminate.lpad.loopexit.split-lp

call1.i.noexc:                                    ; preds = %call1.i.i.noexc
  %call1.i5.i74 = invoke noundef nonnull align 8 dereferenceable(8) ptr @_ZSt16__ostream_insertIcSt11char_traitsIcEERSt13basic_ostreamIT_T0_ES6_PKS3_l(ptr noundef nonnull align 8 dereferenceable(8) %call1.i73, ptr noundef nonnull @.str.38, i64 noundef 1)
          to label %invoke.cont17 unwind label %terminate.lpad.loopexit.split-lp

invoke.cont17:                                    ; preds = %call1.i.noexc
  %call1.i77 = invoke noundef nonnull align 8 dereferenceable(8) ptr @_ZSt16__ostream_insertIcSt11char_traitsIcEERSt13basic_ostreamIT_T0_ES6_PKS3_l(ptr noundef nonnull align 8 dereferenceable(8) %call.i68, ptr noundef nonnull @.str.51, i64 noundef 8)
          to label %invoke.cont19 unwind label %terminate.lpad.loopexit.split-lp

invoke.cont19:                                    ; preds = %invoke.cont17
  %state_ = getelementptr inbounds i8, ptr %this, i64 216
  %3 = load i8, ptr %state_, align 8, !tbaa !125
  %conv.i = zext i8 %3 to i32
  %call.i79 = invoke noundef nonnull align 8 dereferenceable(8) ptr @_ZNSolsEi(ptr noundef nonnull align 8 dereferenceable(8) %call.i68, i32 noundef %conv.i)
          to label %cleanup.action unwind label %terminate.lpad.loopexit.split-lp

cleanup.action:                                   ; preds = %invoke.cont19
  call void @_ZN6google10LogMessageD1Ev(ptr noundef nonnull align 8 dereferenceable(96) %ref.tmp6) #41
  call void @llvm.lifetime.end.p0(i64 96, ptr nonnull %ref.tmp6) #41
  br label %cleanup.done26

cleanup.done26:                                   ; preds = %cleanup.action, %cond.end, %cond.false
  %maxReadsPerEvent_ = getelementptr inbounds i8, ptr %this, i64 292
  %4 = load i16, ptr %maxReadsPerEvent_, align 4, !tbaa !301
  %tobool27.not = icmp eq i16 %4, 0
  %conv = zext i16 %4 to i64
  %spec.select = select i1 %tobool27.not, i64 -1, i64 %conv
  %eventBase_ = getelementptr inbounds i8, ptr %this, i64 296
  %5 = load ptr, ptr %eventBase_, align 8, !tbaa !26
  %readCallback_ = getelementptr inbounds i8, ptr %this, i64 768
  br label %while.cond

while.cond:                                       ; preds = %if.end, %cleanup.done26
  %numReads.0 = phi i64 [ %spec.select, %cleanup.done26 ], [ %dec, %if.end ]
  %6 = load ptr, ptr %readCallback_, align 8, !tbaa !134
  %tobool33.not = icmp ne ptr %6, null
  %7 = load ptr, ptr %eventBase_, align 8
  %cmp35 = icmp eq ptr %7, %5
  %or.cond = select i1 %tobool33.not, i1 %cmp35, i1 false
  br i1 %or.cond, label %land.rhs, label %cleanup58

land.rhs:                                         ; preds = %while.cond
  %dec = add i64 %numReads.0, -1
  %tobool36.not = icmp eq i64 %numReads.0, 0
  br i1 %tobool36.not, label %if.then56, label %while.body

while.body:                                       ; preds = %land.rhs
  %call38 = invoke noundef i32 @_ZN5folly11AsyncSocket19processZeroCopyReadEv(ptr noundef nonnull align 8 dereferenceable(1113) %this)
          to label %invoke.cont37 unwind label %terminate.lpad.loopexit, !range !302

invoke.cont37:                                    ; preds = %while.body
  %cmp39 = icmp eq i32 %call38, 0
  br i1 %cmp39, label %if.then, label %if.end

if.then:                                          ; preds = %invoke.cont37
  %call41 = invoke noundef i32 @_ZN5folly11AsyncSocket17processNormalReadEv(ptr noundef nonnull align 8 dereferenceable(1113) %this)
          to label %if.end unwind label %terminate.lpad.loopexit, !range !303

if.end:                                           ; preds = %if.then, %invoke.cont37
  %ret.0 = phi i32 [ %call38, %invoke.cont37 ], [ %call41, %if.then ]
  %cond = icmp eq i32 %ret.0, 2
  br i1 %cond, label %cleanup58, label %while.cond

if.then56:                                        ; preds = %land.rhs
  call void @_ZN5folly11AsyncSocket21scheduleImmediateReadEv(ptr noundef nonnull align 8 dereferenceable(1113) %this) #41
  br label %cleanup58

cleanup58:                                        ; preds = %if.end, %while.cond, %if.then56
  ret void

terminate.lpad.loopexit:                          ; preds = %if.then, %while.body
  %lpad.loopexit = landingpad { ptr, i32 }
          catch ptr null
  br label %terminate.lpad

terminate.lpad.loopexit.split-lp:                 ; preds = %invoke.cont19, %invoke.cont17, %call1.i.noexc, %call1.i.i.noexc, %invoke.cont15, %invoke.cont13, %invoke.cont11, %invoke.cont9, %invoke.cont7, %cond.false4, %cond.true
  %lpad.loopexit.split-lp = landingpad { ptr, i32 }
          catch ptr null
  br label %terminate.lpad

terminate.lpad:                                   ; preds = %terminate.lpad.loopexit.split-lp, %terminate.lpad.loopexit
  %lpad.phi = phi { ptr, i32 } [ %lpad.loopexit, %terminate.lpad.loopexit ], [ %lpad.loopexit.split-lp, %terminate.lpad.loopexit.split-lp ]
  %8 = extractvalue { ptr, i32 } %lpad.phi, 0
  call void @__clang_call_terminate(ptr %8) #43
  unreachable
}